; Function Attrs: mustprogress nofree norecurse nosync nounwind willreturn memory(read, inaccessiblemem: none) uwtable
define dso_local i32 @_ZNK4llvm19MachineRegisterInfo16getLiveInVirtRegENS_10MCRegisterE(ptr noundef nonnull readonly align 8 captures(none) dereferenceable(512) %0, i32 %1) local_unnamed_addr #10 align 2 {
  %3 = getelementptr inbounds nuw i8, ptr %0, i64 488
  %4 = load ptr, ptr %3, align 8
  %5 = getelementptr inbounds nuw i8, ptr %0, i64 496
  %6 = load ptr, ptr %5, align 8
  %.not13 = icmp eq ptr %4, %6
  br i1 %.not13, label %.loopexit, label %.lr.ph

.lr.ph:                                           ; preds = %2, %12
  %.014 = phi ptr [ %13, %12 ], [ %4, %2 ]
  %7 = load i32, ptr %.014, align 4
  %8 = icmp eq i32 %7, %1
  br i1 %8, label %9, label %12

9:                                                ; preds = %.lr.ph
  %10 = getelementptr inbounds nuw i8, ptr %.014, i64 4
  %11 = load i32, ptr %10, align 4
  br label %.loopexit

12:                                               ; preds = %.lr.ph
  %13 = getelementptr inbounds nuw i8, ptr %.014, i64 8
  %.not = icmp eq ptr %13, %6
  br i1 %.not, label %.loopexit, label %.lr.ph

.loopexit:                                        ; preds = %12, %2, %9
  %.sroa.011.0 = phi i32 [ %11, %9 ], [ 0, %2 ], [ 0, %12 ]
  ret i32 %.sroa.011.0
}